target datalayout = "e-m:e-p270:32:32-p271:32:32-p272:64:64-i64:64-i128:128-f80:128-n8:16:32:64-S128"
target triple = "x86_64-pc-linux-gnu"

%struct.FT_GlyphRec_ = type { ptr, ptr, i32, %struct.FT_Vector_ }
%struct.FT_Vector_ = type { i64, i64 }
%struct.FT_Bitmap_ = type { i32, i32, i32, ptr, i16, i8, i8, ptr }
%struct.FT_BitmapGlyphRec_ = type { %struct.FT_GlyphRec_, i32, i32, %struct.FT_Bitmap_ }
%struct.FT_BBox_ = type { i64, i64, i64, i64 }

; Function Attrs: nounwind uwtable
define internal void @ft_bitmap_glyph_bbox(ptr noundef %0, ptr noundef %1) #0 {
  %3 = alloca ptr, align 8
  %4 = alloca ptr, align 8
  %5 = alloca ptr, align 8
  store ptr %0, ptr %3, align 8, !tbaa !3
  store ptr %1, ptr %4, align 8, !tbaa !49
  call void @llvm.lifetime.start.p0(i64 8, ptr %5) #6
  %6 = load ptr, ptr %3, align 8, !tbaa !3
  store ptr %6, ptr %5, align 8, !tbaa !10
  %7 = load ptr, ptr %5, align 8, !tbaa !10
  %8 = getelementptr inbounds nuw %struct.FT_BitmapGlyphRec_, ptr %7, i32 0, i32 1
  %9 = load i32, ptr %8, align 8, !tbaa !35
  %10 = mul nsw i32 %9, 64
  %11 = sext i32 %10 to i64
  %12 = load ptr, ptr %4, align 8, !tbaa !49
  %13 = getelementptr inbounds nuw %struct.FT_BBox_, ptr %12, i32 0, i32 0
  store i64 %11, ptr %13, align 8, !tbaa !51
  %14 = load ptr, ptr %4, align 8, !tbaa !49
  %15 = getelementptr inbounds nuw %struct.FT_BBox_, ptr %14, i32 0, i32 0
  %16 = load i64, ptr %15, align 8, !tbaa !51
  %17 = load ptr, ptr %5, align 8, !tbaa !10
  %18 = getelementptr inbounds nuw %struct.FT_BitmapGlyphRec_, ptr %17, i32 0, i32 3
  %19 = getelementptr inbounds nuw %struct.FT_Bitmap_, ptr %18, i32 0, i32 1
  %20 = load i32, ptr %19, align 4, !tbaa !53
  %21 = mul i32 %20, 64
  %22 = zext i32 %21 to i64
  %23 = add nsw i64 %16, %22
  %24 = load ptr, ptr %4, align 8, !tbaa !49
  %25 = getelementptr inbounds nuw %struct.FT_BBox_, ptr %24, i32 0, i32 2
  store i64 %23, ptr %25, align 8, !tbaa !54
  %26 = load ptr, ptr %5, align 8, !tbaa !10
  %27 = getelementptr inbounds nuw %struct.FT_BitmapGlyphRec_, ptr %26, i32 0, i32 2
  %28 = load i32, ptr %27, align 4, !tbaa !38
  %29 = mul nsw i32 %28, 64
  %30 = sext i32 %29 to i64
  %31 = load ptr, ptr %4, align 8, !tbaa !49
  %32 = getelementptr inbounds nuw %struct.FT_BBox_, ptr %31, i32 0, i32 3
  store i64 %30, ptr %32, align 8, !tbaa !55
  %33 = load ptr, ptr %4, align 8, !tbaa !49
  %34 = getelementptr inbounds nuw %struct.FT_BBox_, ptr %33, i32 0, i32 3
  %35 = load i64, ptr %34, align 8, !tbaa !55
  %36 = load ptr, ptr %5, align 8, !tbaa !10
  %37 = getelementptr inbounds nuw %struct.FT_BitmapGlyphRec_, ptr %36, i32 0, i32 3
  %38 = getelementptr inbounds nuw %struct.FT_Bitmap_, ptr %37, i32 0, i32 0
  %39 = load i32, ptr %38, align 8, !tbaa !56
  %40 = mul i32 %39, 64
  %41 = zext i32 %40 to i64
  %42 = sub nsw i64 %35, %41
  %43 = load ptr, ptr %4, align 8, !tbaa !49
  %44 = getelementptr inbounds nuw %struct.FT_BBox_, ptr %43, i32 0, i32 1
  store i64 %42, ptr %44, align 8, !tbaa !57
  call void @llvm.lifetime.end.p0(i64 8, ptr %5) #6
  ret void
}