; Function Attrs: mustprogress nofree norecurse nosync nounwind willreturn memory(argmem: readwrite) uwtable
define internal void @ft_bitmap_glyph_bbox(ptr noundef readonly captures(none) %0, ptr noundef writeonly captures(none) initializes((0, 32)) %1) #1 {
  %3 = getelementptr inbounds nuw i8, ptr %0, i64 40
  %4 = load i32, ptr %3, align 8, !tbaa !28
  %5 = shl nsw i32 %4, 6
  %6 = sext i32 %5 to i64
  store i64 %6, ptr %1, align 8, !tbaa !43
  %7 = getelementptr inbounds nuw i8, ptr %0, i64 48
  %8 = getelementptr inbounds nuw i8, ptr %0, i64 52
  %9 = load i32, ptr %8, align 4, !tbaa !45
  %10 = shl i32 %9, 6
  %11 = zext i32 %10 to i64
  %12 = add nsw i64 %11, %6
  %13 = getelementptr inbounds nuw i8, ptr %1, i64 16
  store i64 %12, ptr %13, align 8, !tbaa !46
  %14 = getelementptr inbounds nuw i8, ptr %0, i64 44
  %15 = load i32, ptr %14, align 4, !tbaa !31
  %16 = shl nsw i32 %15, 6
  %17 = sext i32 %16 to i64
  %18 = getelementptr inbounds nuw i8, ptr %1, i64 24
  store i64 %17, ptr %18, align 8, !tbaa !47
  %19 = load i32, ptr %7, align 8, !tbaa !48
  %20 = shl i32 %19, 6
  %21 = zext i32 %20 to i64
  %22 = sub nsw i64 %17, %21
  %23 = getelementptr inbounds nuw i8, ptr %1, i64 8
  store i64 %22, ptr %23, align 8, !tbaa !49
  ret void
}